target datalayout = "e-m:e-p270:32:32-p271:32:32-p272:64:64-i64:64-i128:128-f80:128-n8:16:32:64-S128"
target triple = "x86_64-pc-linux-gnu"

%"struct.faiss::InvertedLists.base" = type <{ ptr, i64, i64, i8 }>
%"struct.faiss::ReadOnlyInvertedLists.base" = type { %"struct.faiss::InvertedLists.base" }
%"struct.faiss::StopWordsInvertedLists" = type { %"struct.faiss::ReadOnlyInvertedLists.base", ptr, i64 }

; Function Attrs: mustprogress uwtable
define void @_ZNK5faiss22StopWordsInvertedLists11release_idsEmPKl(ptr noundef nonnull align 8 dereferenceable(48) %0, i64 noundef %1, ptr noundef %2) unnamed_addr #2 align 2 {
  %4 = alloca ptr, align 8
  %5 = alloca i64, align 8
  %6 = alloca ptr, align 8
  store ptr %0, ptr %4, align 8, !tbaa !61
  store i64 %1, ptr %5, align 8, !tbaa !11
  store ptr %2, ptr %6, align 8, !tbaa !15
  %7 = load ptr, ptr %4, align 8
  %8 = getelementptr inbounds nuw %"struct.faiss::StopWordsInvertedLists", ptr %7, i32 0, i32 1
  %9 = load ptr, ptr %8, align 8, !tbaa !63
  %10 = load i64, ptr %5, align 8, !tbaa !11
  %11 = load ptr, ptr %9, align 8, !tbaa !17
  %12 = getelementptr inbounds ptr, ptr %11, i64 2
  %13 = load ptr, ptr %12, align 8
  %14 = call noundef i64 %13(ptr noundef nonnull align 8 dereferenceable(25) %9, i64 noundef %10)
  %15 = getelementptr inbounds nuw %"struct.faiss::StopWordsInvertedLists", ptr %7, i32 0, i32 2
  %16 = load i64, ptr %15, align 8, !tbaa !65
  %17 = icmp ult i64 %14, %16
  br i1 %17, label %18, label %26

18:                                               ; preds = %3
  %19 = getelementptr inbounds nuw %"struct.faiss::StopWordsInvertedLists", ptr %7, i32 0, i32 1
  %20 = load ptr, ptr %19, align 8, !tbaa !63
  %21 = load i64, ptr %5, align 8, !tbaa !11
  %22 = load ptr, ptr %6, align 8, !tbaa !15
  %23 = load ptr, ptr %20, align 8, !tbaa !17
  %24 = getelementptr inbounds ptr, ptr %23, i64 6
  %25 = load ptr, ptr %24, align 8
  call void %25(ptr noundef nonnull align 8 dereferenceable(25) %20, i64 noundef %21, ptr noundef %22)
  br label %26

26:                                               ; preds = %18, %3
  ret void
}