; Function Attrs: mustprogress uwtable
define void @_ZNK5faiss22StopWordsInvertedLists11release_idsEmPKl(ptr noundef nonnull readonly align 8 captures(none) dereferenceable(48) %0, i64 noundef %1, ptr noundef %2) unnamed_addr #2 align 2 {
  %4 = getelementptr inbounds nuw i8, ptr %0, i64 32
  %5 = load ptr, ptr %4, align 8, !tbaa !80
  %6 = load ptr, ptr %5, align 8, !tbaa !4
  %7 = getelementptr inbounds nuw i8, ptr %6, i64 16
  %8 = load ptr, ptr %7, align 8
  %9 = tail call noundef i64 %8(ptr noundef nonnull align 8 dereferenceable(25) %5, i64 noundef %1)
  %10 = getelementptr inbounds nuw i8, ptr %0, i64 40
  %11 = load i64, ptr %10, align 8, !tbaa !82
  %12 = icmp ult i64 %9, %11
  br i1 %12, label %13, label %18

13:                                               ; preds = %3
  %14 = load ptr, ptr %4, align 8, !tbaa !80
  %15 = load ptr, ptr %14, align 8, !tbaa !4
  %16 = getelementptr inbounds nuw i8, ptr %15, i64 48
  %17 = load ptr, ptr %16, align 8
  tail call void %17(ptr noundef nonnull align 8 dereferenceable(25) %14, i64 noundef %1, ptr noundef %2)
  br label %18

18:                                               ; preds = %13, %3
  ret void
}